; Function Attrs: mustprogress nounwind uwtable
define hidden noundef zeroext i1 @_ZN12VirtualSpace10initializeE13ReservedSpacem(ptr nocapture noundef nonnull align 8 dereferenceable(112) %0, ptr nocapture noundef readonly byval(%class.ReservedSpace) align 8 %1, i64 noundef %2) local_unnamed_addr #1 align 2 {
  %4 = getelementptr inbounds i8, ptr %1, i64 8
  %5 = load i64, ptr %4, align 8
  %6 = tail call noundef i64 @_ZN2os30page_size_for_region_unalignedEmm(i64 noundef %5, i64 noundef 1) #13
  %.sroa.04.0.copyload = load ptr, ptr %1, align 8
  %.not5.i = icmp eq ptr %.sroa.04.0.copyload, null
  br i1 %.not5.i, label %_ZN12VirtualSpace27initialize_with_granularityE13ReservedSpacemm.exit, label %7

7:                                                ; preds = %3
  %.sroa.67.0..sroa_idx = getelementptr inbounds i8, ptr %1, i64 48
  %.sroa.67.0.copyload = load i8, ptr %.sroa.67.0..sroa_idx, align 8
  %.sroa.45.0..sroa_idx = getelementptr inbounds i8, ptr %1, i64 40
  %.sroa.45.0.copyload = load i8, ptr %.sroa.45.0..sroa_idx, align 8
  store ptr %.sroa.04.0.copyload, ptr %0, align 8
  %8 = getelementptr inbounds i8, ptr %.sroa.04.0.copyload, i64 %5
  %9 = getelementptr inbounds i8, ptr %0, i64 8
  store ptr %8, ptr %9, align 8
  %10 = getelementptr inbounds i8, ptr %0, i64 16
  store ptr %.sroa.04.0.copyload, ptr %10, align 8
  %11 = getelementptr inbounds i8, ptr %0, i64 24
  store ptr %.sroa.04.0.copyload, ptr %11, align 8
  %12 = getelementptr inbounds i8, ptr %0, i64 32
  %13 = and i8 %.sroa.45.0.copyload, 1
  store i8 %13, ptr %12, align 8
  %14 = getelementptr inbounds i8, ptr %0, i64 33
  %15 = and i8 %.sroa.67.0.copyload, 1
  store i8 %15, ptr %14, align 1
  %16 = load i64, ptr @_ZN6OSInfo13_vm_page_sizeE, align 8
  %17 = getelementptr inbounds i8, ptr %0, i64 88
  store i64 %16, ptr %17, align 8
  %18 = getelementptr inbounds i8, ptr %0, i64 96
  store i64 %6, ptr %18, align 8
  %19 = getelementptr inbounds i8, ptr %0, i64 104
  store i64 %16, ptr %19, align 8
  %20 = ptrtoint ptr %.sroa.04.0.copyload to i64
  %21 = add i64 %6, -1
  %22 = add i64 %21, %20
  %23 = sub i64 0, %6
  %24 = and i64 %22, %23
  %25 = inttoptr i64 %24 to ptr
  %26 = getelementptr inbounds i8, ptr %0, i64 64
  store ptr %25, ptr %26, align 8
  %27 = ptrtoint ptr %8 to i64
  %28 = and i64 %27, %23
  %29 = inttoptr i64 %28 to ptr
  %30 = getelementptr inbounds i8, ptr %0, i64 72
  store ptr %29, ptr %30, align 8
  %31 = getelementptr inbounds i8, ptr %0, i64 80
  store ptr %8, ptr %31, align 8
  %32 = getelementptr inbounds i8, ptr %0, i64 40
  store ptr %.sroa.04.0.copyload, ptr %32, align 8
  %33 = getelementptr inbounds i8, ptr %0, i64 48
  store ptr %25, ptr %33, align 8
  %34 = getelementptr inbounds i8, ptr %0, i64 56
  store ptr %29, ptr %34, align 8
  %.not.i = icmp eq i64 %2, 0
  br i1 %.not.i, label %37, label %35

35:                                               ; preds = %7
  %36 = tail call noundef zeroext i1 @_ZN12VirtualSpace9expand_byEmb(ptr noundef nonnull align 8 dereferenceable(112) %0, i64 noundef %2, i1 noundef zeroext false)
  br i1 %36, label %37, label %_ZN12VirtualSpace27initialize_with_granularityE13ReservedSpacemm.exit

37:                                               ; preds = %35, %7
  br label %_ZN12VirtualSpace27initialize_with_granularityE13ReservedSpacemm.exit

_ZN12VirtualSpace27initialize_with_granularityE13ReservedSpacemm.exit: ; preds = %3, %35, %37
  %.0.i = phi i1 [ true, %37 ], [ false, %3 ], [ false, %35 ]
  ret i1 %.0.i
}